(lp0
I397780
aI280040
aI362740
aI341150
aI266840
aI61500
aI61510
aI226840
aI61520
aI92900
aI236790
aI387850
aI369290
aI202750
aI377280
aI19680
aI22650
aI22670
aI22610
aI217920
aI33100
aI211010
aI33120
aI33110
aI207000
aI214490
aI3730
aI10680
aI49540
aI259170
aI259190
aI2590
aI34010
aI302190
aI239200
aI359390
aI210550
aI237740
aI91200
aI305920
aI358030
aI219890
aI280740
aI39640
aI39690
aI65610
aI207730
aI65700
aI33930
aI65720
aI107410
aI224860
aI1700
aI296930
aI33230
aI277590
aI201870
aI15100
aI48190
aI208480
aI242050
aI260210
aI311560
aI289650
aI233310
aI204300
aI205080
aI205070
aI261600
aI310880
aI107100
aI208650
aI209000
aI267490
aI200150
aI385700
aI302470
aI311060
aI238460
aI348400
aI78000
aI3350
aI219760
aI356050
aI15130
aI7670
aI8850
aI8870
aI21670
aI362890
aI225600
aI208670
aI15230
aI239800
aI303870
aI315450
aI313500
aI313480
aI111800
aI58520
aI216890
aI306020
aI8980
aI49520
aI261640
aI232790
aI316160
aI57640
aI225080
aI19800
aI15390
aI15190
aI373280
aI225260
aI99810
aI12200
aI24740
aI22340
aI2620
aI2630
aI209650
aI42700
aI214630
aI202970
aI209160
aI10180
aI2640
aI10090
aI3020
aI204450
aI21980
aI282030
aI282010
aI331650
aI249380
aI204360
aI227860
aI200900
aI219640
aI231140
aI8800
aI3990
aI206230
aI283100
aI375320
aI24810
aI24790
aI47700
aI17480
aI24800
aI4560
aI231430
aI20540
aI238430
aI115100
aI275180
aI10
aI80
aI730
aI341380
aI280220
aI247080
aI17300
aI17330
aI325880
aI335300
aI211420
aI9050
aI9070
aI2300
aI57650
aI251410
aI2100
aI50620
aI50650
a.